target datalayout = "e-m:e-p270:32:32-p271:32:32-p272:64:64-i64:64-i128:128-f80:128-n8:16:32:64-S128"
target triple = "x86_64-pc-linux-gnu"

%"class.Ipopt::ReferencedObject.base" = type <{ ptr, i32 }>
%"class.Ipopt::ReferencedObject" = type <{ ptr, i32, [4 x i8] }>
%"class.std::__cxx11::basic_string" = type { %"struct.std::__cxx11::basic_string<char>::_Alloc_hider", i64, %union.anon }
%"struct.std::__cxx11::basic_string<char>::_Alloc_hider" = type { ptr }
%union.anon = type { i64, [8 x i8] }
%"class.Ipopt::Journal" = type { %"class.Ipopt::ReferencedObject.base", %"class.std::__cxx11::basic_string", [32 x i32] }
%"class.Ipopt::StreamJournal" = type { %"class.Ipopt::Journal", ptr, [32768 x i8] }

@_ZTVN5Ipopt16ReferencedObjectE = linkonce_odr unnamed_addr constant { [4 x ptr] } { [4 x ptr] [ptr null, ptr @_ZTIN5Ipopt16ReferencedObjectE, ptr @_ZN5Ipopt16ReferencedObjectD2Ev, ptr @_ZN5Ipopt16ReferencedObjectD0Ev] }, comdat, align 8

; Function Attrs: mustprogress nounwind uwtable
define linkonce_odr void @_ZN5Ipopt16ReferencedObjectD2Ev(ptr noundef nonnull align 8 dereferenceable(12) %0) unnamed_addr #1 comdat align 2 {
  %2 = alloca ptr, align 8
  store ptr %0, ptr %2, align 8
  %3 = load ptr, ptr %2, align 8
  store ptr getelementptr inbounds ({ [4 x ptr] }, ptr @_ZTVN5Ipopt16ReferencedObjectE, i32 0, i32 0, i32 2), ptr %3, align 8
  ret void
}

; Function Attrs: mustprogress nounwind uwtable
define linkonce_odr void @_ZN5Ipopt16ReferencedObjectC2Ev(ptr noundef nonnull align 8 dereferenceable(12) %0) unnamed_addr #1 comdat align 2 {
  %2 = alloca ptr, align 8
  store ptr %0, ptr %2, align 8
  %3 = load ptr, ptr %2, align 8
  store ptr getelementptr inbounds ({ [4 x ptr] }, ptr @_ZTVN5Ipopt16ReferencedObjectE, i32 0, i32 0, i32 2), ptr %3, align 8
  %4 = getelementptr inbounds %"class.Ipopt::ReferencedObject", ptr %3, i32 0, i32 1
  store i32 0, ptr %4, align 8
  ret void
}

; Function Attrs: mustprogress uwtable
define void @_ZN5Ipopt7JournalC2ERKNSt7__cxx1112basic_stringIcSt11char_traitsIcESaIcEEENS_13EJournalLevelE(ptr noundef nonnull align 8 dereferenceable(176) %0, ptr noundef nonnull align 8 dereferenceable(32) %1, i32 noundef %2) unnamed_addr #0 align 2 personality ptr @__gxx_personality_v0 {
  %4 = alloca ptr, align 8
  %5 = alloca ptr, align 8
  %6 = alloca i32, align 4
  %7 = alloca ptr, align 8
  %8 = alloca i32, align 4
  %9 = alloca i32, align 4
  store ptr %0, ptr %4, align 8
  store ptr %1, ptr %5, align 8
  store i32 %2, ptr %6, align 4
  %10 = load ptr, ptr %4, align 8
  call void @_ZN5Ipopt16ReferencedObjectC2Ev(ptr noundef nonnull align 8 dereferenceable(12) %10)
  store ptr getelementptr inbounds ({ [14 x ptr] }, ptr @_ZTVN5Ipopt7JournalE, i32 0, i32 0, i32 2), ptr %10, align 8
  %11 = getelementptr inbounds %"class.Ipopt::Journal", ptr %10, i32 0, i32 1
  %12 = load ptr, ptr %5, align 8
  invoke void @_ZNSt7__cxx1112basic_stringIcSt11char_traitsIcESaIcEEC1ERKS4_(ptr noundef nonnull align 8 dereferenceable(32) %11, ptr noundef nonnull align 8 dereferenceable(32) %12)
          to label %13 unwind label %26

13:                                               ; preds = %3
  store i32 0, ptr %9, align 4
  br label %14

14:                                               ; preds = %23, %13
  %15 = load i32, ptr %9, align 4
  %16 = icmp slt i32 %15, 32
  br i1 %16, label %17, label %30

17:                                               ; preds = %14
  %18 = load i32, ptr %6, align 4
  %19 = getelementptr inbounds %"class.Ipopt::Journal", ptr %10, i32 0, i32 2
  %20 = load i32, ptr %9, align 4
  %21 = sext i32 %20 to i64
  %22 = getelementptr inbounds [32 x i32], ptr %19, i64 0, i64 %21
  store i32 %18, ptr %22, align 4
  br label %23

23:                                               ; preds = %17
  %24 = load i32, ptr %9, align 4
  %25 = add nsw i32 %24, 1
  store i32 %25, ptr %9, align 4
  br label %14, !llvm.loop !15

26:                                               ; preds = %3
  %27 = landingpad { ptr, i32 }
          cleanup
  %28 = extractvalue { ptr, i32 } %27, 0
  store ptr %28, ptr %7, align 8
  %29 = extractvalue { ptr, i32 } %27, 1
  store i32 %29, ptr %8, align 4
  call void @_ZN5Ipopt16ReferencedObjectD2Ev(ptr noundef nonnull align 8 dereferenceable(12) %10) #11
  br label %31

30:                                               ; preds = %14
  ret void

31:                                               ; preds = %26
  %32 = load ptr, ptr %7, align 8
  %33 = load i32, ptr %8, align 4
  %34 = insertvalue { ptr, i32 } poison, ptr %32, 0
  %35 = insertvalue { ptr, i32 } %34, i32 %33, 1
  resume { ptr, i32 } %35
}

; Function Attrs: mustprogress uwtable
define void @_ZN5Ipopt13StreamJournalC2ERKNSt7__cxx1112basic_stringIcSt11char_traitsIcESaIcEEENS_13EJournalLevelE(ptr noundef nonnull align 8 dereferenceable(32952) %0, ptr noundef nonnull align 8 dereferenceable(32) %1, i32 noundef %2) unnamed_addr #0 align 2 {
  %4 = alloca ptr, align 8
  %5 = alloca ptr, align 8
  %6 = alloca i32, align 4
  store ptr %0, ptr %4, align 8
  store ptr %1, ptr %5, align 8
  store i32 %2, ptr %6, align 4
  %7 = load ptr, ptr %4, align 8
  %8 = load ptr, ptr %5, align 8
  %9 = load i32, ptr %6, align 4
  call void @_ZN5Ipopt7JournalC2ERKNSt7__cxx1112basic_stringIcSt11char_traitsIcESaIcEEENS_13EJournalLevelE(ptr noundef nonnull align 8 dereferenceable(176) %7, ptr noundef nonnull align 8 dereferenceable(32) %8, i32 noundef %9)
  store ptr getelementptr inbounds ({ [14 x ptr] }, ptr @_ZTVN5Ipopt13StreamJournalE, i32 0, i32 0, i32 2), ptr %7, align 8
  %10 = getelementptr inbounds %"class.Ipopt::StreamJournal", ptr %7, i32 0, i32 1
  store ptr null, ptr %10, align 8
  ret void
}